target datalayout = "e-m:e-p270:32:32-p271:32:32-p272:64:64-i64:64-i128:128-f80:128-n8:16:32:64-S128"
target triple = "x86_64-pc-linux-gnu"

%struct.object_id = type { [32 x i8], i32 }
%struct.commit = type { %struct.object, i64, ptr, ptr, i32 }
%struct.object = type { i32, %struct.object_id }
%struct.packed_commit_list = type { ptr, i64, i64 }
%struct.write_commit_graph_context = type { ptr, ptr, ptr, %struct.oid_array, %struct.packed_commit_list, i32, i32, i64, ptr, i32, i64, ptr, i32, i32, ptr, ptr, ptr, i32, ptr, i8, ptr, ptr, i64, ptr, i32, i32, i32, i32, i32 }
%struct.oid_array = type { ptr, i64, i64, i32 }
%struct.object_info = type { ptr, ptr, ptr, ptr, ptr, ptr, i32, %union.anon }
%union.anon = type { %struct.anon.0 }
%struct.anon.0 = type { ptr, i64, i32 }
%struct.commit_pos = type { i32, i32, i32, ptr }

@.str.59 = private unnamed_addr constant [27 x i8] c"size_t overflow: %lu * %lu\00", align 1
@.str.67 = private unnamed_addr constant [32 x i8] c"unable to get type of object %s\00", align 1
@set_commit_pos.max_pos = internal global i32 0, align 4
@commit_pos = internal global { i32, i32, i32, [4 x i8], ptr } { i32 131064, i32 1, i32 0, [4 x i8] zeroinitializer, ptr null }, align 8

; Function Attrs: inlinehint nounwind uwtable
define internal i64 @st_mult(i64 noundef %0, i64 noundef %1) #5 {
  %3 = alloca i64, align 8
  %4 = alloca i64, align 8
  store i64 %0, ptr %3, align 8, !tbaa !73
  store i64 %1, ptr %4, align 8, !tbaa !73
  %5 = load i64, ptr %3, align 8, !tbaa !73
  %6 = icmp ne i64 %5, 0
  br i1 %6, label %7, label %15

7:                                                ; preds = %2
  %8 = load i64, ptr %4, align 8, !tbaa !73
  %9 = load i64, ptr %3, align 8, !tbaa !73
  %10 = udiv i64 -1, %9
  %11 = icmp ugt i64 %8, %10
  br i1 %11, label %12, label %15

12:                                               ; preds = %7
  %13 = load i64, ptr %3, align 8, !tbaa !73
  %14 = load i64, ptr %4, align 8, !tbaa !73
  call void (ptr, ...) @die(ptr noundef @.str.59, i64 noundef %13, i64 noundef %14) #13
  unreachable

15:                                               ; preds = %7, %2
  %16 = load i64, ptr %3, align 8, !tbaa !73
  %17 = load i64, ptr %4, align 8, !tbaa !73
  %18 = mul i64 %16, %17
  ret i64 %18
}

; Function Attrs: nounwind uwtable
define internal ptr @commit_pos_at_peek(ptr noundef %0, ptr noundef %1, i32 noundef %2) #0 {
  %4 = alloca ptr, align 8
  %5 = alloca ptr, align 8
  %6 = alloca ptr, align 8
  %7 = alloca i32, align 4
  %8 = alloca i32, align 4
  %9 = alloca i32, align 4
  %10 = alloca i32, align 4
  %11 = alloca i32, align 4
  store ptr %0, ptr %5, align 8, !tbaa !335
  store ptr %1, ptr %6, align 8, !tbaa !52
  store i32 %2, ptr %7, align 4, !tbaa !4
  call void @llvm.lifetime.start.p0(i64 4, ptr %8) #12
  call void @llvm.lifetime.start.p0(i64 4, ptr %9) #12
  %12 = load ptr, ptr %6, align 8, !tbaa !52
  %13 = getelementptr inbounds nuw %struct.commit, ptr %12, i32 0, i32 4
  %14 = load i32, ptr %13, align 8, !tbaa !311
  %15 = load ptr, ptr %5, align 8, !tbaa !335
  %16 = getelementptr inbounds nuw %struct.commit_pos, ptr %15, i32 0, i32 0
  %17 = load i32, ptr %16, align 8, !tbaa !337
  %18 = udiv i32 %14, %17
  store i32 %18, ptr %8, align 4, !tbaa !4
  %19 = load ptr, ptr %6, align 8, !tbaa !52
  %20 = getelementptr inbounds nuw %struct.commit, ptr %19, i32 0, i32 4
  %21 = load i32, ptr %20, align 8, !tbaa !311
  %22 = load ptr, ptr %5, align 8, !tbaa !335
  %23 = getelementptr inbounds nuw %struct.commit_pos, ptr %22, i32 0, i32 0
  %24 = load i32, ptr %23, align 8, !tbaa !337
  %25 = urem i32 %21, %24
  store i32 %25, ptr %9, align 4, !tbaa !4
  %26 = load ptr, ptr %5, align 8, !tbaa !335
  %27 = getelementptr inbounds nuw %struct.commit_pos, ptr %26, i32 0, i32 2
  %28 = load i32, ptr %27, align 8, !tbaa !339
  %29 = load i32, ptr %8, align 4, !tbaa !4
  %30 = icmp ule i32 %28, %29
  br i1 %30, label %31, label %71

31:                                               ; preds = %3
  call void @llvm.lifetime.start.p0(i64 4, ptr %10) #12
  %32 = load i32, ptr %7, align 4, !tbaa !4
  %33 = icmp ne i32 %32, 0
  br i1 %33, label %35, label %34

34:                                               ; preds = %31
  store ptr null, ptr %4, align 8
  store i32 1, ptr %11, align 4
  br label %68

35:                                               ; preds = %31
  %36 = load ptr, ptr %5, align 8, !tbaa !335
  %37 = getelementptr inbounds nuw %struct.commit_pos, ptr %36, i32 0, i32 3
  %38 = load ptr, ptr %37, align 8, !tbaa !340
  %39 = load i32, ptr %8, align 4, !tbaa !4
  %40 = add i32 %39, 1
  %41 = zext i32 %40 to i64
  %42 = call i64 @st_mult(i64 noundef 8, i64 noundef %41)
  %43 = call ptr @xrealloc(ptr noundef %38, i64 noundef %42)
  %44 = load ptr, ptr %5, align 8, !tbaa !335
  %45 = getelementptr inbounds nuw %struct.commit_pos, ptr %44, i32 0, i32 3
  store ptr %43, ptr %45, align 8, !tbaa !340
  %46 = load ptr, ptr %5, align 8, !tbaa !335
  %47 = getelementptr inbounds nuw %struct.commit_pos, ptr %46, i32 0, i32 2
  %48 = load i32, ptr %47, align 8, !tbaa !339
  store i32 %48, ptr %10, align 4, !tbaa !4
  br label %49

49:                                               ; preds = %60, %35
  %50 = load i32, ptr %10, align 4, !tbaa !4
  %51 = load i32, ptr %8, align 4, !tbaa !4
  %52 = icmp ule i32 %50, %51
  br i1 %52, label %53, label %63

53:                                               ; preds = %49
  %54 = load ptr, ptr %5, align 8, !tbaa !335
  %55 = getelementptr inbounds nuw %struct.commit_pos, ptr %54, i32 0, i32 3
  %56 = load ptr, ptr %55, align 8, !tbaa !340
  %57 = load i32, ptr %10, align 4, !tbaa !4
  %58 = zext i32 %57 to i64
  %59 = getelementptr inbounds nuw ptr, ptr %56, i64 %58
  store ptr null, ptr %59, align 8, !tbaa !66
  br label %60

60:                                               ; preds = %53
  %61 = load i32, ptr %10, align 4, !tbaa !4
  %62 = add i32 %61, 1
  store i32 %62, ptr %10, align 4, !tbaa !4
  br label %49, !llvm.loop !341

63:                                               ; preds = %49
  %64 = load i32, ptr %8, align 4, !tbaa !4
  %65 = add i32 %64, 1
  %66 = load ptr, ptr %5, align 8, !tbaa !335
  %67 = getelementptr inbounds nuw %struct.commit_pos, ptr %66, i32 0, i32 2
  store i32 %65, ptr %67, align 8, !tbaa !339
  store i32 0, ptr %11, align 4
  br label %68

68:                                               ; preds = %63, %34
  call void @llvm.lifetime.end.p0(i64 4, ptr %10) #12
  %69 = load i32, ptr %11, align 4
  switch i32 %69, label %116 [
    i32 0, label %70
  ]

70:                                               ; preds = %68
  br label %71

71:                                               ; preds = %70, %3
  %72 = load ptr, ptr %5, align 8, !tbaa !335
  %73 = getelementptr inbounds nuw %struct.commit_pos, ptr %72, i32 0, i32 3
  %74 = load ptr, ptr %73, align 8, !tbaa !340
  %75 = load i32, ptr %8, align 4, !tbaa !4
  %76 = zext i32 %75 to i64
  %77 = getelementptr inbounds nuw ptr, ptr %74, i64 %76
  %78 = load ptr, ptr %77, align 8, !tbaa !66
  %79 = icmp ne ptr %78, null
  br i1 %79, label %101, label %80

80:                                               ; preds = %71
  %81 = load i32, ptr %7, align 4, !tbaa !4
  %82 = icmp ne i32 %81, 0
  br i1 %82, label %84, label %83

83:                                               ; preds = %80
  store ptr null, ptr %4, align 8
  store i32 1, ptr %11, align 4
  br label %116

84:                                               ; preds = %80
  %85 = load ptr, ptr %5, align 8, !tbaa !335
  %86 = getelementptr inbounds nuw %struct.commit_pos, ptr %85, i32 0, i32 0
  %87 = load i32, ptr %86, align 8, !tbaa !337
  %88 = zext i32 %87 to i64
  %89 = load ptr, ptr %5, align 8, !tbaa !335
  %90 = getelementptr inbounds nuw %struct.commit_pos, ptr %89, i32 0, i32 1
  %91 = load i32, ptr %90, align 4, !tbaa !342
  %92 = zext i32 %91 to i64
  %93 = mul i64 4, %92
  %94 = call ptr @xcalloc(i64 noundef %88, i64 noundef %93)
  %95 = load ptr, ptr %5, align 8, !tbaa !335
  %96 = getelementptr inbounds nuw %struct.commit_pos, ptr %95, i32 0, i32 3
  %97 = load ptr, ptr %96, align 8, !tbaa !340
  %98 = load i32, ptr %8, align 4, !tbaa !4
  %99 = zext i32 %98 to i64
  %100 = getelementptr inbounds nuw ptr, ptr %97, i64 %99
  store ptr %94, ptr %100, align 8, !tbaa !66
  br label %101

101:                                              ; preds = %84, %71
  %102 = load ptr, ptr %5, align 8, !tbaa !335
  %103 = getelementptr inbounds nuw %struct.commit_pos, ptr %102, i32 0, i32 3
  %104 = load ptr, ptr %103, align 8, !tbaa !340
  %105 = load i32, ptr %8, align 4, !tbaa !4
  %106 = zext i32 %105 to i64
  %107 = getelementptr inbounds nuw ptr, ptr %104, i64 %106
  %108 = load ptr, ptr %107, align 8, !tbaa !66
  %109 = load i32, ptr %9, align 4, !tbaa !4
  %110 = load ptr, ptr %5, align 8, !tbaa !335
  %111 = getelementptr inbounds nuw %struct.commit_pos, ptr %110, i32 0, i32 1
  %112 = load i32, ptr %111, align 4, !tbaa !342
  %113 = mul i32 %109, %112
  %114 = zext i32 %113 to i64
  %115 = getelementptr inbounds nuw i32, ptr %108, i64 %114
  store ptr %115, ptr %4, align 8
  store i32 1, ptr %11, align 4
  br label %116

116:                                              ; preds = %101, %83, %68
  call void @llvm.lifetime.end.p0(i64 4, ptr %9) #12
  call void @llvm.lifetime.end.p0(i64 4, ptr %8) #12
  %117 = load ptr, ptr %4, align 8
  ret ptr %117
}

; Function Attrs: nounwind uwtable
define internal ptr @commit_pos_at(ptr noundef %0, ptr noundef %1) #0 {
  %3 = alloca ptr, align 8
  %4 = alloca ptr, align 8
  store ptr %0, ptr %3, align 8, !tbaa !335
  store ptr %1, ptr %4, align 8, !tbaa !52
  %5 = load ptr, ptr %3, align 8, !tbaa !335
  %6 = load ptr, ptr %4, align 8, !tbaa !52
  %7 = call ptr @commit_pos_at_peek(ptr noundef %5, ptr noundef %6, i32 noundef 1)
  ret ptr %7
}

; Function Attrs: nounwind uwtable
define internal void @set_commit_pos(ptr noundef %0, ptr noundef %1) #0 {
  %3 = alloca ptr, align 8
  %4 = alloca ptr, align 8
  %5 = alloca ptr, align 8
  %6 = alloca i32, align 4
  store ptr %0, ptr %3, align 8, !tbaa !8
  store ptr %1, ptr %4, align 8, !tbaa !113
  call void @llvm.lifetime.start.p0(i64 8, ptr %5) #12
  %7 = load ptr, ptr %3, align 8, !tbaa !8
  %8 = load ptr, ptr %4, align 8, !tbaa !113
  %9 = call ptr @lookup_commit(ptr noundef %7, ptr noundef %8)
  store ptr %9, ptr %5, align 8, !tbaa !52
  %10 = load ptr, ptr %5, align 8, !tbaa !52
  %11 = icmp ne ptr %10, null
  br i1 %11, label %13, label %12

12:                                               ; preds = %2
  store i32 1, ptr %6, align 4
  br label %18

13:                                               ; preds = %2
  %14 = load i32, ptr @set_commit_pos.max_pos, align 4, !tbaa !4
  %15 = add nsw i32 %14, 1
  store i32 %15, ptr @set_commit_pos.max_pos, align 4, !tbaa !4
  %16 = load ptr, ptr %5, align 8, !tbaa !52
  %17 = call ptr @commit_pos_at(ptr noundef @commit_pos, ptr noundef %16)
  store i32 %14, ptr %17, align 4, !tbaa !4
  store i32 0, ptr %6, align 4
  br label %18

18:                                               ; preds = %13, %12
  call void @llvm.lifetime.end.p0(i64 8, ptr %5) #12
  %19 = load i32, ptr %6, align 4
  switch i32 %19, label %21 [
    i32 0, label %20
    i32 1, label %20
  ]

20:                                               ; preds = %18, %18
  ret void

21:                                               ; preds = %18
  unreachable
}

; Function Attrs: nounwind uwtable
define internal i32 @add_packed_commits(ptr noundef %0, ptr noundef %1, i32 noundef %2, ptr noundef %3) #0 {
  %5 = alloca i32, align 4
  %6 = alloca ptr, align 8
  %7 = alloca ptr, align 8
  %8 = alloca i32, align 4
  %9 = alloca ptr, align 8
  %10 = alloca ptr, align 8
  %11 = alloca i32, align 4
  %12 = alloca i64, align 8
  %13 = alloca %struct.object_info, align 8
  %14 = alloca i32, align 4
  store ptr %0, ptr %6, align 8, !tbaa !113
  store ptr %1, ptr %7, align 8, !tbaa !247
  store i32 %2, ptr %8, align 4, !tbaa !4
  store ptr %3, ptr %9, align 8, !tbaa !78
  call void @llvm.lifetime.start.p0(i64 8, ptr %10) #12
  %15 = load ptr, ptr %9, align 8, !tbaa !78
  store ptr %15, ptr %10, align 8, !tbaa !197
  call void @llvm.lifetime.start.p0(i64 4, ptr %11) #12
  call void @llvm.lifetime.start.p0(i64 8, ptr %12) #12
  %16 = load ptr, ptr %7, align 8, !tbaa !247
  %17 = load i32, ptr %8, align 4, !tbaa !4
  %18 = call i64 @nth_packed_object_offset(ptr noundef %16, i32 noundef %17)
  store i64 %18, ptr %12, align 8, !tbaa !73
  call void @llvm.lifetime.start.p0(i64 80, ptr %13) #12
  call void @llvm.memset.p0.i64(ptr align 8 %13, i8 0, i64 80, i1 false)
  %19 = load ptr, ptr %10, align 8, !tbaa !197
  %20 = getelementptr inbounds nuw %struct.write_commit_graph_context, ptr %19, i32 0, i32 8
  %21 = load ptr, ptr %20, align 8, !tbaa !242
  %22 = icmp ne ptr %21, null
  br i1 %22, label %23, label %32

23:                                               ; preds = %4
  %24 = load ptr, ptr %10, align 8, !tbaa !197
  %25 = getelementptr inbounds nuw %struct.write_commit_graph_context, ptr %24, i32 0, i32 8
  %26 = load ptr, ptr %25, align 8, !tbaa !242
  %27 = load ptr, ptr %10, align 8, !tbaa !197
  %28 = getelementptr inbounds nuw %struct.write_commit_graph_context, ptr %27, i32 0, i32 9
  %29 = load i32, ptr %28, align 8, !tbaa !243
  %30 = add nsw i32 %29, 1
  store i32 %30, ptr %28, align 8, !tbaa !243
  %31 = sext i32 %30 to i64
  call void @display_progress(ptr noundef %26, i64 noundef %31)
  br label %32

32:                                               ; preds = %23, %4
  %33 = getelementptr inbounds nuw %struct.object_info, ptr %13, i32 0, i32 0
  store ptr %11, ptr %33, align 8, !tbaa !333
  %34 = load ptr, ptr %10, align 8, !tbaa !197
  %35 = getelementptr inbounds nuw %struct.write_commit_graph_context, ptr %34, i32 0, i32 0
  %36 = load ptr, ptr %35, align 8, !tbaa !199
  %37 = load ptr, ptr %7, align 8, !tbaa !247
  %38 = load i64, ptr %12, align 8, !tbaa !73
  %39 = call i32 @packed_object_info(ptr noundef %36, ptr noundef %37, i64 noundef %38, ptr noundef %13)
  %40 = icmp slt i32 %39, 0
  br i1 %40, label %41, label %45

41:                                               ; preds = %32
  %42 = call ptr @_(ptr noundef @.str.67)
  %43 = load ptr, ptr %6, align 8, !tbaa !113
  %44 = call ptr @oid_to_hex(ptr noundef %43)
  call void (ptr, ...) @die(ptr noundef %42, ptr noundef %44) #13
  unreachable

45:                                               ; preds = %32
  %46 = load i32, ptr %11, align 4, !tbaa !4
  %47 = icmp ne i32 %46, 1
  br i1 %47, label %48, label %49

48:                                               ; preds = %45
  store i32 0, ptr %5, align 4
  store i32 1, ptr %14, align 4
  br label %57

49:                                               ; preds = %45
  %50 = load ptr, ptr %10, align 8, !tbaa !197
  %51 = getelementptr inbounds nuw %struct.write_commit_graph_context, ptr %50, i32 0, i32 3
  %52 = load ptr, ptr %6, align 8, !tbaa !113
  call void @oid_array_append(ptr noundef %51, ptr noundef %52)
  %53 = load ptr, ptr %10, align 8, !tbaa !197
  %54 = getelementptr inbounds nuw %struct.write_commit_graph_context, ptr %53, i32 0, i32 0
  %55 = load ptr, ptr %54, align 8, !tbaa !199
  %56 = load ptr, ptr %6, align 8, !tbaa !113
  call void @set_commit_pos(ptr noundef %55, ptr noundef %56)
  store i32 0, ptr %5, align 4
  store i32 1, ptr %14, align 4
  br label %57

57:                                               ; preds = %49, %48
  call void @llvm.lifetime.end.p0(i64 80, ptr %13) #12
  call void @llvm.lifetime.end.p0(i64 8, ptr %12) #12
  call void @llvm.lifetime.end.p0(i64 4, ptr %11) #12
  call void @llvm.lifetime.end.p0(i64 8, ptr %10) #12
  %58 = load i32, ptr %5, align 4
  ret i32 %58
}