; Function Attrs: nounwind uwtable
define internal noundef i32 @add_packed_commits(ptr noundef %0, ptr noundef %1, i32 noundef %2, ptr noundef %3) #0 {
  %5 = alloca i32, align 4
  %6 = alloca %struct.object_info, align 8
  call void @llvm.lifetime.start.p0(i64 4, ptr nonnull %5) #24
  %7 = tail call i64 @nth_packed_object_offset(ptr noundef %1, i32 noundef %2) #24
  call void @llvm.lifetime.start.p0(i64 80, ptr nonnull %6) #24
  %8 = getelementptr inbounds nuw i8, ptr %6, i64 8
  call void @llvm.memset.p0.i64(ptr noundef nonnull align 8 dereferenceable(80) %8, i8 0, i64 72, i1 false)
  %9 = getelementptr inbounds nuw i8, ptr %3, i64 96
  %10 = load ptr, ptr %9, align 8, !tbaa !203
  %.not = icmp eq ptr %10, null
  br i1 %.not, label %16, label %11

11:                                               ; preds = %4
  %12 = getelementptr inbounds nuw i8, ptr %3, i64 104
  %13 = load i32, ptr %12, align 8, !tbaa !204
  %14 = add nsw i32 %13, 1
  store i32 %14, ptr %12, align 8, !tbaa !204
  %15 = sext i32 %14 to i64
  tail call void @display_progress(ptr noundef nonnull %10, i64 noundef %15) #24
  br label %16

16:                                               ; preds = %11, %4
  store ptr %5, ptr %6, align 8, !tbaa !295
  %17 = load ptr, ptr %3, align 8, !tbaa !178
  %18 = call i32 @packed_object_info(ptr noundef %17, ptr noundef %1, i64 noundef %7, ptr noundef nonnull %6) #24
  %19 = icmp slt i32 %18, 0
  br i1 %19, label %20, label %23

20:                                               ; preds = %16
  %21 = call fastcc ptr @_(ptr noundef nonnull @.str.67)
  %22 = call ptr @oid_to_hex(ptr noundef %0) #24
  call void (ptr, ...) @die(ptr noundef %21, ptr noundef %22) #25
  unreachable

23:                                               ; preds = %16
  %24 = load i32, ptr %5, align 4, !tbaa !47
  %.not14 = icmp eq i32 %24, 1
  br i1 %.not14, label %25, label %set_commit_pos.exit

25:                                               ; preds = %23
  %26 = getelementptr inbounds nuw i8, ptr %3, i64 24
  call void @oid_array_append(ptr noundef nonnull %26, ptr noundef %0) #24
  %27 = load ptr, ptr %3, align 8, !tbaa !178
  %28 = call ptr @lookup_commit(ptr noundef %27, ptr noundef %0) #24
  %.not.i = icmp eq ptr %28, null
  br i1 %.not.i, label %set_commit_pos.exit, label %29

29:                                               ; preds = %25
  %30 = load i32, ptr @set_commit_pos.max_pos, align 4, !tbaa !47
  %31 = add nsw i32 %30, 1
  store i32 %31, ptr @set_commit_pos.max_pos, align 4, !tbaa !47
  %32 = getelementptr i8, ptr %28, i64 64
  %.val.i = load i32, ptr %32, align 8, !tbaa !49
  %33 = udiv i32 %.val.i, 131064
  %34 = urem i32 %.val.i, 131064
  %35 = load i32, ptr @commit_pos.2, align 8, !tbaa !299
  %.not.i.i.i = icmp ugt i32 %35, %33
  %.pre.i.i.i = load ptr, ptr @commit_pos.3, align 8, !tbaa !301
  br i1 %.not.i.i.i, label %44, label %st_mult.exit.i.i.i

st_mult.exit.i.i.i:                               ; preds = %29
  %36 = add nuw nsw i32 %33, 1
  %37 = shl nuw nsw i32 %36, 3
  %38 = zext nneg i32 %37 to i64
  %39 = call ptr @xrealloc(ptr noundef %.pre.i.i.i, i64 noundef %38) #24
  store ptr %39, ptr @commit_pos.3, align 8, !tbaa !301
  %40 = load i32, ptr @commit_pos.2, align 8, !tbaa !299
  %.not332.i.i.i = icmp ugt i32 %40, %33
  br i1 %.not332.i.i.i, label %._crit_edge.i.i.i, label %.lr.ph.i.i.i

.lr.ph.i.i.i:                                     ; preds = %st_mult.exit.i.i.i, %.lr.ph.i.i.i
  %.0303.i.i.i = phi i32 [ %43, %.lr.ph.i.i.i ], [ %40, %st_mult.exit.i.i.i ]
  %41 = zext i32 %.0303.i.i.i to i64
  %42 = getelementptr inbounds nuw ptr, ptr %39, i64 %41
  store ptr null, ptr %42, align 8, !tbaa !148
  %43 = add i32 %.0303.i.i.i, 1
  %.not33.i.i.i = icmp ugt i32 %43, %33
  br i1 %.not33.i.i.i, label %._crit_edge.i.i.i, label %.lr.ph.i.i.i, !llvm.loop !302

._crit_edge.i.i.i:                                ; preds = %.lr.ph.i.i.i, %st_mult.exit.i.i.i
  store i32 %36, ptr @commit_pos.2, align 8, !tbaa !299
  br label %44

44:                                               ; preds = %._crit_edge.i.i.i, %29
  %45 = phi ptr [ %39, %._crit_edge.i.i.i ], [ %.pre.i.i.i, %29 ]
  %46 = zext nneg i32 %33 to i64
  %47 = getelementptr inbounds nuw ptr, ptr %45, i64 %46
  %48 = load ptr, ptr %47, align 8, !tbaa !148
  %.not34.i.i.i = icmp eq ptr %48, null
  br i1 %.not34.i.i.i, label %49, label %commit_pos_at.exit.i

49:                                               ; preds = %44
  %50 = call ptr @xcalloc(i64 noundef 131064, i64 noundef 4) #24
  %51 = load ptr, ptr @commit_pos.3, align 8, !tbaa !301
  %52 = getelementptr inbounds nuw ptr, ptr %51, i64 %46
  store ptr %50, ptr %52, align 8, !tbaa !148
  br label %commit_pos_at.exit.i

commit_pos_at.exit.i:                             ; preds = %49, %44
  %53 = phi ptr [ %48, %44 ], [ %50, %49 ]
  %54 = zext nneg i32 %34 to i64
  %55 = getelementptr inbounds nuw i32, ptr %53, i64 %54
  store i32 %30, ptr %55, align 4, !tbaa !47
  br label %set_commit_pos.exit

set_commit_pos.exit:                              ; preds = %commit_pos_at.exit.i, %25, %23
  call void @llvm.lifetime.end.p0(i64 80, ptr nonnull %6) #24
  call void @llvm.lifetime.end.p0(i64 4, ptr nonnull %5) #24
  ret i32 0
}